target datalayout = "e-m:e-p270:32:32-p271:32:32-p272:64:64-i64:64-i128:128-f80:128-n8:16:32:64-S128"
target triple = "x86_64-pc-linux-gnu"

%struct._GdkRGBA = type { double, double, double, double }
%struct.darktable_t = type { %struct.dt_codepath_t, i32, i32, ptr, ptr, ptr, ptr, ptr, ptr, ptr, ptr, ptr, ptr, ptr, ptr, ptr, ptr, ptr, ptr, ptr, ptr, ptr, ptr, ptr, ptr, ptr, ptr, ptr, ptr, ptr, [64 x %struct.dt_pthread_mutex_t], %struct.dt_pthread_mutex_t, %struct.dt_pthread_mutex_t, %struct.dt_pthread_mutex_t, %struct.dt_pthread_mutex_t, %struct.dt_pthread_mutex_t, ptr, ptr, ptr, ptr, ptr, ptr, ptr, ptr, ptr, ptr, ptr, ptr, ptr, %struct.dt_lua_state_t, ptr, double, ptr, i32, [47 x i32], i32, i32, ptr, ptr, %struct.dt_sys_resources_t, %struct.dt_backthumb_t, %struct.dt_gimp_t }
%struct.dt_codepath_t = type { i8, [3 x i8] }
%struct.dt_pthread_mutex_t = type { %union.pthread_mutex_t }
%union.pthread_mutex_t = type { %struct.__pthread_mutex_s }
%struct.__pthread_mutex_s = type { i32, i32, i32, i32, i32, i16, i16, %struct.__pthread_internal_list }
%struct.__pthread_internal_list = type { ptr, ptr }
%struct.dt_lua_state_t = type { i32 }
%struct.dt_sys_resources_t = type { i64, i64, ptr, ptr, i32 }
%struct.dt_backthumb_t = type { double, double, i32, i32, i32, i32 }
%struct.dt_gimp_t = type { i32, ptr, ptr, i32, i32 }
%struct.dt_iop_module_t = type { i32, ptr, ptr, ptr, ptr, ptr, ptr, ptr, ptr, ptr, ptr, ptr, ptr, ptr, ptr, ptr, ptr, ptr, ptr, ptr, ptr, ptr, ptr, ptr, ptr, ptr, ptr, ptr, ptr, ptr, ptr, ptr, ptr, ptr, ptr, ptr, ptr, ptr, ptr, ptr, ptr, ptr, ptr, ptr, ptr, ptr, ptr, ptr, ptr, ptr, ptr, ptr, ptr, ptr, ptr, ptr, ptr, [20 x i8], i32, i32, i32, i32, i32, i32, i32, [8 x i8], [4 x float], [4 x float], [4 x float], [4 x float], [4 x float], [4 x float], ptr, %struct.dt_dev_histogram_stats_t, [4 x i32], i32, i32, ptr, i32, i32, ptr, ptr, i32, ptr, %struct.dt_pthread_mutex_t, ptr, ptr, ptr, ptr, %struct.anon, ptr, ptr, ptr, ptr, ptr, ptr, ptr, i32, ptr, ptr, ptr, ptr, ptr, ptr, ptr, i32, ptr, i32, [128 x i8], i32, ptr, ptr, i32, [12 x i8] }
%struct.dt_dev_histogram_stats_t = type { i32, i64, i32, i32 }
%struct.anon = type { %struct.anon.0, %struct.anon.1 }
%struct.anon.0 = type { ptr, ptr }
%struct.anon.1 = type { ptr, i32 }
%struct.dt_iop_gui_blend_data_t = type { i32, i32, i32, i32, i32, i32, i32, ptr, ptr, ptr, ptr, ptr, ptr, ptr, ptr, ptr, ptr, ptr, ptr, ptr, [2 x %struct.dt_iop_gui_blendif_filter_t], ptr, ptr, ptr, ptr, ptr, ptr, ptr, ptr, ptr, ptr, ptr, ptr, i32, i32, ptr, i32, [8 x [2 x i32]], i32, i32, ptr, i32, ptr, ptr, ptr, [5 x ptr], [5 x i32], ptr, ptr, ptr, i32, ptr, ptr, i32, %struct.dt_pthread_mutex_t }
%struct.dt_iop_gui_blendif_filter_t = type { ptr, ptr, [4 x ptr], ptr, ptr, ptr }
%struct.dt_gui_gtk_t = type { ptr, %struct.dt_gui_widgets_t, %struct.dt_gui_scrollbars_t, i32, ptr, i32, [39 x %struct._GdkRGBA], i32, i32, i32, i32, i32, double, double, double, double, ptr, double, double, double, double, i32, i32, [4096 x i8], i32, i32, i32, %struct.dt_pthread_mutex_t }
%struct.dt_gui_widgets_t = type { ptr, ptr, ptr, ptr, i32, i32, i32 }
%struct.dt_gui_scrollbars_t = type { ptr, ptr, i32 }
%struct.dt_iop_gui_blendif_channel_t = type { ptr, ptr, float, i32, ptr, i32, float, [2 x i32], i32, ptr, ptr, ptr }

@darktable = external global %struct.darktable_t, align 8

; Function Attrs: inlinehint nounwind uwtable
define internal i32 @dt_pthread_mutex_unlock(ptr noundef %0) #3 {
  %2 = alloca ptr, align 8
  store ptr %0, ptr %2, align 8, !tbaa !138
  %3 = load ptr, ptr %2, align 8, !tbaa !138
  %4 = getelementptr inbounds nuw %struct.dt_pthread_mutex_t, ptr %3, i32 0, i32 0
  %5 = call i32 @pthread_mutex_unlock(ptr noundef %4) #11
  ret i32 %5
}

; Function Attrs: inlinehint nounwind uwtable
define internal i32 @dt_pthread_mutex_lock(ptr noundef %0) #3 {
  %2 = alloca ptr, align 8
  store ptr %0, ptr %2, align 8, !tbaa !138
  %3 = load ptr, ptr %2, align 8, !tbaa !138
  %4 = getelementptr inbounds nuw %struct.dt_pthread_mutex_t, ptr %3, i32 0, i32 0
  %5 = call i32 @pthread_mutex_lock(ptr noundef %4) #11
  ret i32 %5
}

; Function Attrs: nounwind uwtable
define void @dt_iop_gui_update_blendif(ptr noundef %0) #0 {
  %2 = alloca ptr, align 8
  %3 = alloca ptr, align 8
  %4 = alloca i32, align 4
  %5 = alloca i32, align 4
  %6 = alloca ptr, align 8
  store ptr %0, ptr %2, align 8, !tbaa !6
  call void @llvm.lifetime.start.p0(i64 8, ptr %3) #11
  %7 = load ptr, ptr %2, align 8, !tbaa !6
  %8 = getelementptr inbounds nuw %struct.dt_iop_module_t, ptr %7, i32 0, i32 88
  %9 = load ptr, ptr %8, align 8, !tbaa !15
  store ptr %9, ptr %3, align 8, !tbaa !31
  %10 = load ptr, ptr %3, align 8, !tbaa !31
  %11 = icmp ne ptr %10, null
  br i1 %11, label %12, label %22

12:                                               ; preds = %1
  %13 = load ptr, ptr %3, align 8, !tbaa !31
  %14 = getelementptr inbounds nuw %struct.dt_iop_gui_blend_data_t, ptr %13, i32 0, i32 0
  %15 = load i32, ptr %14, align 8, !tbaa !155
  %16 = icmp ne i32 %15, 0
  br i1 %16, label %17, label %22

17:                                               ; preds = %12
  %18 = load ptr, ptr %3, align 8, !tbaa !31
  %19 = getelementptr inbounds nuw %struct.dt_iop_gui_blend_data_t, ptr %18, i32 0, i32 2
  %20 = load i32, ptr %19, align 8, !tbaa !156
  %21 = icmp ne i32 %20, 0
  br i1 %21, label %23, label %22

22:                                               ; preds = %17, %12, %1
  store i32 1, ptr %4, align 4
  br label %163

23:                                               ; preds = %17
  %24 = load ptr, ptr getelementptr inbounds nuw (%struct.darktable_t, ptr @darktable, i32 0, i32 14), align 8, !tbaa !39
  %25 = getelementptr inbounds nuw %struct.dt_gui_gtk_t, ptr %24, i32 0, i32 5
  %26 = load i32, ptr %25, align 8, !tbaa !72
  %27 = add nsw i32 %26, 1
  store i32 %27, ptr %25, align 8, !tbaa !72
  %28 = load ptr, ptr %3, align 8, !tbaa !31
  %29 = getelementptr inbounds nuw %struct.dt_iop_gui_blend_data_t, ptr %28, i32 0, i32 54
  %30 = call i32 @dt_pthread_mutex_lock(ptr noundef %29)
  %31 = load ptr, ptr %3, align 8, !tbaa !31
  %32 = getelementptr inbounds nuw %struct.dt_iop_gui_blend_data_t, ptr %31, i32 0, i32 39
  %33 = load i32, ptr %32, align 8, !tbaa !157
  %34 = icmp ne i32 %33, 0
  br i1 %34, label %35, label %61

35:                                               ; preds = %23
  %36 = load ptr, ptr %3, align 8, !tbaa !31
  %37 = getelementptr inbounds nuw %struct.dt_iop_gui_blend_data_t, ptr %36, i32 0, i32 39
  %38 = load i32, ptr %37, align 8, !tbaa !157
  %39 = call i32 @g_source_remove(i32 noundef %38)
  %40 = load ptr, ptr %3, align 8, !tbaa !31
  %41 = getelementptr inbounds nuw %struct.dt_iop_gui_blend_data_t, ptr %40, i32 0, i32 39
  store i32 0, ptr %41, align 8, !tbaa !157
  %42 = load ptr, ptr %2, align 8, !tbaa !6
  %43 = getelementptr inbounds nuw %struct.dt_iop_module_t, ptr %42, i32 0, i32 63
  %44 = load i32, ptr %43, align 16, !tbaa !158
  %45 = load ptr, ptr %3, align 8, !tbaa !31
  %46 = getelementptr inbounds nuw %struct.dt_iop_gui_blend_data_t, ptr %45, i32 0, i32 38
  %47 = load i32, ptr %46, align 4, !tbaa !159
  %48 = and i32 %47, -65537
  %49 = icmp ne i32 %44, %48
  br i1 %49, label %50, label %60

50:                                               ; preds = %35
  %51 = load ptr, ptr %3, align 8, !tbaa !31
  %52 = getelementptr inbounds nuw %struct.dt_iop_gui_blend_data_t, ptr %51, i32 0, i32 38
  %53 = load i32, ptr %52, align 4, !tbaa !159
  %54 = and i32 %53, -65537
  %55 = load ptr, ptr %2, align 8, !tbaa !6
  %56 = getelementptr inbounds nuw %struct.dt_iop_module_t, ptr %55, i32 0, i32 63
  store i32 %54, ptr %56, align 16, !tbaa !158
  %57 = load ptr, ptr %2, align 8, !tbaa !6
  %58 = getelementptr inbounds nuw %struct.dt_iop_module_t, ptr %57, i32 0, i32 77
  %59 = load ptr, ptr %58, align 8, !tbaa !92
  call void @dt_dev_reprocess_all(ptr noundef %59)
  br label %60

60:                                               ; preds = %50, %35
  br label %61

61:                                               ; preds = %60, %23
  %62 = load ptr, ptr %3, align 8, !tbaa !31
  %63 = getelementptr inbounds nuw %struct.dt_iop_gui_blend_data_t, ptr %62, i32 0, i32 54
  %64 = call i32 @dt_pthread_mutex_unlock(ptr noundef %63)
  %65 = load ptr, ptr %3, align 8, !tbaa !31
  %66 = getelementptr inbounds nuw %struct.dt_iop_gui_blend_data_t, ptr %65, i32 0, i32 20
  %67 = getelementptr inbounds [2 x %struct.dt_iop_gui_blendif_filter_t], ptr %66, i64 0, i64 1
  %68 = getelementptr inbounds nuw %struct.dt_iop_gui_blendif_filter_t, ptr %67, i32 0, i32 5
  %69 = load ptr, ptr %68, align 8, !tbaa !160
  %70 = call i64 @gtk_widget_get_type() #12
  %71 = call ptr @g_type_check_instance_cast(ptr noundef %69, i64 noundef %70)
  %72 = load ptr, ptr %3, align 8, !tbaa !31
  %73 = getelementptr inbounds nuw %struct.dt_iop_gui_blend_data_t, ptr %72, i32 0, i32 41
  %74 = load i32, ptr %73, align 8, !tbaa !81
  call void @gtk_widget_set_visible(ptr noundef %71, i32 noundef %74)
  %75 = load ptr, ptr %3, align 8, !tbaa !31
  %76 = getelementptr inbounds nuw %struct.dt_iop_gui_blend_data_t, ptr %75, i32 0, i32 34
  %77 = load i32, ptr %76, align 4, !tbaa !91
  %78 = load ptr, ptr %3, align 8, !tbaa !31
  %79 = getelementptr inbounds nuw %struct.dt_iop_gui_blend_data_t, ptr %78, i32 0, i32 6
  %80 = load i32, ptr %79, align 8, !tbaa !161
  %81 = icmp ne i32 %77, %80
  br i1 %81, label %82, label %154

82:                                               ; preds = %61
  %83 = load ptr, ptr %3, align 8, !tbaa !31
  %84 = getelementptr inbounds nuw %struct.dt_iop_gui_blend_data_t, ptr %83, i32 0, i32 35
  store ptr null, ptr %84, align 8, !tbaa !85
  %85 = load ptr, ptr %3, align 8, !tbaa !31
  %86 = getelementptr inbounds nuw %struct.dt_iop_gui_blend_data_t, ptr %85, i32 0, i32 6
  %87 = load i32, ptr %86, align 8, !tbaa !161
  switch i32 %87, label %97 [
    i32 2, label %88
    i32 3, label %91
    i32 4, label %94
  ]

88:                                               ; preds = %82
  %89 = load ptr, ptr %3, align 8, !tbaa !31
  %90 = getelementptr inbounds nuw %struct.dt_iop_gui_blend_data_t, ptr %89, i32 0, i32 35
  store ptr @Lab_channels, ptr %90, align 8, !tbaa !85
  br label %98

91:                                               ; preds = %82
  %92 = load ptr, ptr %3, align 8, !tbaa !31
  %93 = getelementptr inbounds nuw %struct.dt_iop_gui_blend_data_t, ptr %92, i32 0, i32 35
  store ptr @rgb_channels, ptr %93, align 8, !tbaa !85
  br label %98

94:                                               ; preds = %82
  %95 = load ptr, ptr %3, align 8, !tbaa !31
  %96 = getelementptr inbounds nuw %struct.dt_iop_gui_blend_data_t, ptr %95, i32 0, i32 35
  store ptr @rgbj_channels, ptr %96, align 8, !tbaa !85
  br label %98

97:                                               ; preds = %82
  br label %98

98:                                               ; preds = %97, %94, %91, %88
  %99 = load ptr, ptr %2, align 8, !tbaa !6
  call void @dt_iop_color_picker_reset(ptr noundef %99, i32 noundef 1)
  %100 = load ptr, ptr %3, align 8, !tbaa !31
  %101 = getelementptr inbounds nuw %struct.dt_iop_gui_blend_data_t, ptr %100, i32 0, i32 40
  %102 = load ptr, ptr %101, align 8, !tbaa !162
  %103 = call i64 @gtk_container_get_type() #12
  %104 = call ptr @g_type_check_instance_cast(ptr noundef %102, i64 noundef %103)
  call void @dt_gui_container_destroy_children(ptr noundef %104)
  %105 = load ptr, ptr %3, align 8, !tbaa !31
  %106 = getelementptr inbounds nuw %struct.dt_iop_gui_blend_data_t, ptr %105, i32 0, i32 6
  %107 = load i32, ptr %106, align 8, !tbaa !161
  %108 = load ptr, ptr %3, align 8, !tbaa !31
  %109 = getelementptr inbounds nuw %struct.dt_iop_gui_blend_data_t, ptr %108, i32 0, i32 34
  store i32 %107, ptr %109, align 4, !tbaa !91
  call void @llvm.lifetime.start.p0(i64 4, ptr %5) #11
  store i32 0, ptr %5, align 4, !tbaa !80
  call void @llvm.lifetime.start.p0(i64 8, ptr %6) #11
  %110 = load ptr, ptr %3, align 8, !tbaa !31
  %111 = getelementptr inbounds nuw %struct.dt_iop_gui_blend_data_t, ptr %110, i32 0, i32 35
  %112 = load ptr, ptr %111, align 8, !tbaa !85
  store ptr %112, ptr %6, align 8, !tbaa !86
  br label %113

113:                                              ; preds = %138, %98
  %114 = load ptr, ptr %6, align 8, !tbaa !86
  %115 = getelementptr inbounds nuw %struct.dt_iop_gui_blendif_channel_t, ptr %114, i32 0, i32 0
  %116 = load ptr, ptr %115, align 8, !tbaa !163
  %117 = icmp ne ptr %116, null
  br i1 %117, label %119, label %118

118:                                              ; preds = %113
  store i32 3, ptr %4, align 4
  call void @llvm.lifetime.end.p0(i64 8, ptr %6) #11
  br label %143

119:                                              ; preds = %113
  %120 = load ptr, ptr %3, align 8, !tbaa !31
  %121 = getelementptr inbounds nuw %struct.dt_iop_gui_blend_data_t, ptr %120, i32 0, i32 40
  %122 = load ptr, ptr %121, align 8, !tbaa !162
  %123 = load ptr, ptr %6, align 8, !tbaa !86
  %124 = getelementptr inbounds nuw %struct.dt_iop_gui_blendif_channel_t, ptr %123, i32 0, i32 0
  %125 = load ptr, ptr %124, align 8, !tbaa !163
  %126 = load ptr, ptr %6, align 8, !tbaa !86
  %127 = getelementptr inbounds nuw %struct.dt_iop_gui_blendif_channel_t, ptr %126, i32 0, i32 1
  %128 = load ptr, ptr %127, align 8, !tbaa !164
  %129 = call ptr @dcgettext(ptr noundef null, ptr noundef %128, i32 noundef 5) #11
  %130 = call ptr @dt_ui_notebook_page(ptr noundef %122, ptr noundef %125, ptr noundef %129)
  %131 = load ptr, ptr %3, align 8, !tbaa !31
  %132 = getelementptr inbounds nuw %struct.dt_iop_gui_blend_data_t, ptr %131, i32 0, i32 40
  %133 = load ptr, ptr %132, align 8, !tbaa !162
  %134 = load i32, ptr %5, align 4, !tbaa !80
  %135 = call ptr @gtk_notebook_get_nth_page(ptr noundef %133, i32 noundef %134)
  %136 = call i64 @gtk_widget_get_type() #12
  %137 = call ptr @g_type_check_instance_cast(ptr noundef %135, i64 noundef %136)
  call void @gtk_widget_show_all(ptr noundef %137)
  br label %138

138:                                              ; preds = %119
  %139 = load ptr, ptr %6, align 8, !tbaa !86
  %140 = getelementptr inbounds nuw %struct.dt_iop_gui_blendif_channel_t, ptr %139, i32 1
  store ptr %140, ptr %6, align 8, !tbaa !86
  %141 = load i32, ptr %5, align 4, !tbaa !80
  %142 = add nsw i32 %141, 1
  store i32 %142, ptr %5, align 4, !tbaa !80
  br label %113

143:                                              ; preds = %118
  %144 = load ptr, ptr %3, align 8, !tbaa !31
  %145 = getelementptr inbounds nuw %struct.dt_iop_gui_blend_data_t, ptr %144, i32 0, i32 36
  store i32 0, ptr %145, align 8, !tbaa !79
  %146 = load ptr, ptr %3, align 8, !tbaa !31
  %147 = getelementptr inbounds nuw %struct.dt_iop_gui_blend_data_t, ptr %146, i32 0, i32 40
  %148 = load ptr, ptr %147, align 8, !tbaa !162
  %149 = call i64 @gtk_notebook_get_type() #12
  %150 = call ptr @g_type_check_instance_cast(ptr noundef %148, i64 noundef %149)
  %151 = load ptr, ptr %3, align 8, !tbaa !31
  %152 = getelementptr inbounds nuw %struct.dt_iop_gui_blend_data_t, ptr %151, i32 0, i32 36
  %153 = load i32, ptr %152, align 8, !tbaa !79
  call void @gtk_notebook_set_current_page(ptr noundef %150, i32 noundef %153)
  call void @llvm.lifetime.end.p0(i64 4, ptr %5) #11
  br label %154

154:                                              ; preds = %143, %61
  %155 = load ptr, ptr %2, align 8, !tbaa !6
  %156 = load ptr, ptr %3, align 8, !tbaa !31
  %157 = getelementptr inbounds nuw %struct.dt_iop_gui_blend_data_t, ptr %156, i32 0, i32 36
  %158 = load i32, ptr %157, align 8, !tbaa !79
  call void @_blendop_blendif_update_tab(ptr noundef %155, i32 noundef %158)
  %159 = load ptr, ptr getelementptr inbounds nuw (%struct.darktable_t, ptr @darktable, i32 0, i32 14), align 8, !tbaa !39
  %160 = getelementptr inbounds nuw %struct.dt_gui_gtk_t, ptr %159, i32 0, i32 5
  %161 = load i32, ptr %160, align 8, !tbaa !72
  %162 = add nsw i32 %161, -1
  store i32 %162, ptr %160, align 8, !tbaa !72
  store i32 0, ptr %4, align 4
  br label %163

163:                                              ; preds = %154, %22
  call void @llvm.lifetime.end.p0(i64 8, ptr %3) #11
  %164 = load i32, ptr %4, align 4
  switch i32 %164, label %166 [
    i32 0, label %165
    i32 1, label %165
  ]

165:                                              ; preds = %163, %163
  ret void

166:                                              ; preds = %163
  unreachable
}