; Function Attrs: nounwind uwtable
define void @dt_iop_gui_update_blendif(ptr noundef %0) local_unnamed_addr #0 {
  %2 = getelementptr inbounds nuw i8, ptr %0, i64 776
  %3 = load ptr, ptr %2, align 8, !tbaa !6
  %.not = icmp eq ptr %3, null
  br i1 %.not, label %76, label %4

4:                                                ; preds = %1
  %5 = load i32, ptr %3, align 8, !tbaa !141
  %.not45 = icmp eq i32 %5, 0
  br i1 %.not45, label %76, label %6

6:                                                ; preds = %4
  %7 = getelementptr inbounds nuw i8, ptr %3, i64 8
  %8 = load i32, ptr %7, align 8, !tbaa !142
  %.not46 = icmp eq i32 %8, 0
  br i1 %.not46, label %76, label %9

9:                                                ; preds = %6
  %10 = load ptr, ptr getelementptr inbounds nuw (i8, ptr @darktable, i64 104), align 8, !tbaa !33
  %11 = getelementptr inbounds nuw i8, ptr %10, i64 96
  %12 = load i32, ptr %11, align 8, !tbaa !66
  %13 = add nsw i32 %12, 1
  store i32 %13, ptr %11, align 8, !tbaa !66
  %14 = getelementptr inbounds nuw i8, ptr %3, i64 632
  %15 = tail call i32 @pthread_mutex_lock(ptr noundef nonnull %14) #18
  %16 = getelementptr inbounds nuw i8, ptr %3, i64 464
  %17 = load i32, ptr %16, align 8, !tbaa !143
  %.not47 = icmp eq i32 %17, 0
  br i1 %.not47, label %28, label %18

18:                                               ; preds = %9
  %19 = tail call i32 @g_source_remove(i32 noundef %17) #18
  store i32 0, ptr %16, align 8, !tbaa !143
  %20 = getelementptr inbounds nuw i8, ptr %0, i64 496
  %21 = load i32, ptr %20, align 16, !tbaa !144
  %22 = getelementptr inbounds nuw i8, ptr %3, i64 460
  %23 = load i32, ptr %22, align 4, !tbaa !145
  %24 = and i32 %23, -65537
  %.not48 = icmp eq i32 %21, %24
  br i1 %.not48, label %28, label %25

25:                                               ; preds = %18
  store i32 %24, ptr %20, align 16, !tbaa !144
  %26 = getelementptr inbounds nuw i8, ptr %0, i64 664
  %27 = load ptr, ptr %26, align 8, !tbaa !80
  tail call void @dt_dev_reprocess_all(ptr noundef %27) #18
  br label %28

28:                                               ; preds = %18, %25, %9
  %29 = tail call i32 @pthread_mutex_unlock(ptr noundef nonnull %14) #18
  %30 = getelementptr inbounds nuw i8, ptr %3, i64 272
  %31 = load ptr, ptr %30, align 8, !tbaa !146
  %32 = tail call i64 @gtk_widget_get_type() #19
  %33 = tail call ptr @g_type_check_instance_cast(ptr noundef %31, i64 noundef %32) #18
  %34 = getelementptr inbounds nuw i8, ptr %3, i64 480
  %35 = load i32, ptr %34, align 8, !tbaa !73
  tail call void @gtk_widget_set_visible(ptr noundef %33, i32 noundef %35) #18
  %36 = getelementptr inbounds nuw i8, ptr %3, i64 380
  %37 = load i32, ptr %36, align 4, !tbaa !78
  %38 = getelementptr inbounds nuw i8, ptr %3, i64 24
  %39 = load i32, ptr %38, align 8, !tbaa !147
  %.not49 = icmp eq i32 %37, %39
  br i1 %.not49, label %69, label %40

40:                                               ; preds = %28
  %41 = getelementptr inbounds nuw i8, ptr %3, i64 384
  store ptr null, ptr %41, align 8, !tbaa !76
  %switch.tableidx = add i32 %39, -2
  %42 = icmp ult i32 %switch.tableidx, 3
  br i1 %42, label %switch.lookup, label %44

switch.lookup:                                    ; preds = %40
  %43 = zext nneg i32 %switch.tableidx to i64
  %switch.gep = getelementptr inbounds nuw [3 x ptr], ptr @switch.table.dt_iop_gui_update_blendif, i64 0, i64 %43
  %switch.load = load ptr, ptr %switch.gep, align 8
  store ptr %switch.load, ptr %41, align 8, !tbaa !76
  br label %44

44:                                               ; preds = %40, %switch.lookup
  tail call void @dt_iop_color_picker_reset(ptr noundef nonnull %0, i32 noundef 1) #18
  %45 = getelementptr inbounds nuw i8, ptr %3, i64 472
  %46 = load ptr, ptr %45, align 8, !tbaa !148
  %47 = tail call i64 @gtk_container_get_type() #19
  %48 = tail call ptr @g_type_check_instance_cast(ptr noundef %46, i64 noundef %47) #18
  tail call void @dt_gui_container_destroy_children(ptr noundef %48) #18
  %49 = load i32, ptr %38, align 8, !tbaa !147
  store i32 %49, ptr %36, align 4, !tbaa !78
  %50 = load ptr, ptr %41, align 8, !tbaa !76
  %51 = load ptr, ptr %50, align 8, !tbaa !149
  %.not5051 = icmp eq ptr %51, null
  br i1 %.not5051, label %._crit_edge, label %.lr.ph

._crit_edge:                                      ; preds = %.lr.ph, %44
  %52 = getelementptr inbounds nuw i8, ptr %3, i64 392
  store i32 0, ptr %52, align 8, !tbaa !72
  %53 = load ptr, ptr %45, align 8, !tbaa !148
  %54 = tail call i64 @gtk_notebook_get_type() #19
  %55 = tail call ptr @g_type_check_instance_cast(ptr noundef %53, i64 noundef %54) #18
  %56 = load i32, ptr %52, align 8, !tbaa !72
  tail call void @gtk_notebook_set_current_page(ptr noundef %55, i32 noundef %56) #18
  br label %69

.lr.ph:                                           ; preds = %44, %.lr.ph
  %57 = phi ptr [ %68, %.lr.ph ], [ %51, %44 ]
  %.053 = phi ptr [ %66, %.lr.ph ], [ %50, %44 ]
  %.04052 = phi i32 [ %67, %.lr.ph ], [ 0, %44 ]
  %58 = load ptr, ptr %45, align 8, !tbaa !148
  %59 = getelementptr inbounds nuw i8, ptr %.053, i64 8
  %60 = load ptr, ptr %59, align 8, !tbaa !150
  %61 = tail call ptr @dcgettext(ptr noundef null, ptr noundef %60, i32 noundef 5) #18
  %62 = tail call ptr @dt_ui_notebook_page(ptr noundef %58, ptr noundef nonnull %57, ptr noundef %61) #18
  %63 = load ptr, ptr %45, align 8, !tbaa !148
  %64 = tail call ptr @gtk_notebook_get_nth_page(ptr noundef %63, i32 noundef %.04052) #18
  %65 = tail call ptr @g_type_check_instance_cast(ptr noundef %64, i64 noundef %32) #18
  tail call void @gtk_widget_show_all(ptr noundef %65) #18
  %66 = getelementptr inbounds nuw i8, ptr %.053, i64 80
  %67 = add nuw nsw i32 %.04052, 1
  %68 = load ptr, ptr %66, align 8, !tbaa !149
  %.not50 = icmp eq ptr %68, null
  br i1 %.not50, label %._crit_edge, label %.lr.ph

69:                                               ; preds = %._crit_edge, %28
  %70 = getelementptr inbounds nuw i8, ptr %3, i64 392
  %71 = load i32, ptr %70, align 8, !tbaa !72
  tail call fastcc void @_blendop_blendif_update_tab(ptr noundef %0, i32 noundef %71)
  %72 = load ptr, ptr getelementptr inbounds nuw (i8, ptr @darktable, i64 104), align 8, !tbaa !33
  %73 = getelementptr inbounds nuw i8, ptr %72, i64 96
  %74 = load i32, ptr %73, align 8, !tbaa !66
  %75 = add nsw i32 %74, -1
  store i32 %75, ptr %73, align 8, !tbaa !66
  br label %76

76:                                               ; preds = %1, %4, %6, %69
  ret void
}